target datalayout = "e-m:e-p270:32:32-p271:32:32-p272:64:64-i64:64-i128:128-f80:128-n8:16:32:64-S128"
target triple = "x86_64-pc-linux-gnu"

%struct.LogicalRepCtxStruct = type { i32, i32, i64, [0 x %struct.LogicalRepWorker] }
%struct.LogicalRepWorker = type { i32, i64, i8, i16, ptr, i32, i32, i32, i32, i8, i64, i8, ptr, i32, i8, i64, i64, i64, i64, i64 }

@max_logical_replication_workers = dso_local global i32 4, align 4
@LogicalRepCtx = internal global ptr null, align 8
@.str.24 = private unnamed_addr constant [34 x i8] c"Logical Replication Launcher Data\00", align 1

; Function Attrs: nounwind uwtable
define dso_local i64 @ApplyLauncherShmemSize() #0 {
  %1 = alloca i64, align 8
  call void @llvm.lifetime.start.p0(i64 8, ptr %1) #9
  store i64 16, ptr %1, align 8
  %2 = load i64, ptr %1, align 8
  %3 = add i64 %2, 7
  %4 = and i64 %3, -8
  store i64 %4, ptr %1, align 8
  %5 = load i64, ptr %1, align 8
  %6 = load i32, ptr @max_logical_replication_workers, align 4
  %7 = sext i32 %6 to i64
  %8 = call i64 @mul_size(i64 noundef %7, i64 noundef 128)
  %9 = call i64 @add_size(i64 noundef %5, i64 noundef %8)
  store i64 %9, ptr %1, align 8
  %10 = load i64, ptr %1, align 8
  call void @llvm.lifetime.end.p0(i64 8, ptr %1) #9
  ret i64 %10
}

; Function Attrs: nounwind uwtable
define dso_local void @ApplyLauncherShmemInit() #0 {
  %1 = alloca i8, align 1
  %2 = alloca i32, align 4
  %3 = alloca ptr, align 8
  call void @llvm.lifetime.start.p0(i64 1, ptr %1) #9
  %4 = call i64 @ApplyLauncherShmemSize()
  %5 = call ptr @ShmemInitStruct(ptr noundef @.str.24, i64 noundef %4, ptr noundef %1)
  store ptr %5, ptr @LogicalRepCtx, align 8
  %6 = load i8, ptr %1, align 1, !range !4, !noundef !5
  %7 = trunc i8 %6 to i1
  br i1 %7, label %35, label %8

8:                                                ; preds = %0
  call void @llvm.lifetime.start.p0(i64 4, ptr %2) #9
  %9 = load ptr, ptr @LogicalRepCtx, align 8
  %10 = call i64 @ApplyLauncherShmemSize()
  call void @llvm.memset.p0.i64(ptr align 8 %9, i8 0, i64 %10, i1 false)
  %11 = load ptr, ptr @LogicalRepCtx, align 8
  %12 = getelementptr inbounds nuw %struct.LogicalRepCtxStruct, ptr %11, i32 0, i32 1
  store i32 0, ptr %12, align 4
  %13 = load ptr, ptr @LogicalRepCtx, align 8
  %14 = getelementptr inbounds nuw %struct.LogicalRepCtxStruct, ptr %13, i32 0, i32 2
  store i64 0, ptr %14, align 8
  store i32 0, ptr %2, align 4
  br label %15

15:                                               ; preds = %31, %8
  %16 = load i32, ptr %2, align 4
  %17 = load i32, ptr @max_logical_replication_workers, align 4
  %18 = icmp slt i32 %16, %17
  br i1 %18, label %19, label %34

19:                                               ; preds = %15
  call void @llvm.lifetime.start.p0(i64 8, ptr %3) #9
  %20 = load ptr, ptr @LogicalRepCtx, align 8
  %21 = getelementptr inbounds nuw %struct.LogicalRepCtxStruct, ptr %20, i32 0, i32 3
  %22 = load i32, ptr %2, align 4
  %23 = sext i32 %22 to i64
  %24 = getelementptr inbounds [0 x %struct.LogicalRepWorker], ptr %21, i64 0, i64 %23
  store ptr %24, ptr %3, align 8
  %25 = load ptr, ptr %3, align 8
  call void @llvm.memset.p0.i64(ptr align 8 %25, i8 0, i64 128, i1 false)
  br label %26

26:                                               ; preds = %19
  call void asm sideeffect "", "~{memory},~{dirflag},~{fpsr},~{flags}"() #9, !srcloc !16
  %27 = load ptr, ptr %3, align 8
  %28 = getelementptr inbounds nuw %struct.LogicalRepWorker, ptr %27, i32 0, i32 11
  store i8 0, ptr %28, align 8
  br label %29

29:                                               ; preds = %26
  br label %30

30:                                               ; preds = %29
  call void @llvm.lifetime.end.p0(i64 8, ptr %3) #9
  br label %31

31:                                               ; preds = %30
  %32 = load i32, ptr %2, align 4
  %33 = add i32 %32, 1
  store i32 %33, ptr %2, align 4
  br label %15, !llvm.loop !17

34:                                               ; preds = %15
  call void @llvm.lifetime.end.p0(i64 4, ptr %2) #9
  br label %35

35:                                               ; preds = %34, %0
  call void @llvm.lifetime.end.p0(i64 1, ptr %1) #9
  ret void
}