; Function Attrs: nounwind uwtable
define dso_local void @ApplyLauncherShmemInit() local_unnamed_addr #2 {
  %1 = alloca i8, align 1
  call void @llvm.lifetime.start.p0(i64 1, ptr nonnull %1) #13
  %2 = load i32, ptr @max_logical_replication_workers, align 4
  %3 = sext i32 %2 to i64
  %4 = tail call i64 @mul_size(i64 noundef %3, i64 noundef 128) #13
  %5 = tail call i64 @add_size(i64 noundef 16, i64 noundef %4) #13
  %6 = call ptr @ShmemInitStruct(ptr noundef nonnull @.str.24, i64 noundef %5, ptr noundef nonnull %1) #13
  store ptr %6, ptr @LogicalRepCtx, align 8
  %7 = load i8, ptr %1, align 1, !range !4, !noundef !5
  %8 = trunc nuw i8 %7 to i1
  br i1 %8, label %.loopexit, label %9

9:                                                ; preds = %0
  %10 = load i32, ptr @max_logical_replication_workers, align 4
  %11 = sext i32 %10 to i64
  %12 = call i64 @mul_size(i64 noundef %11, i64 noundef 128) #13
  %13 = call i64 @add_size(i64 noundef 16, i64 noundef %12) #13
  call void @llvm.memset.p0.i64(ptr align 8 %6, i8 0, i64 %13, i1 false)
  %14 = load ptr, ptr @LogicalRepCtx, align 8
  %15 = getelementptr inbounds nuw i8, ptr %14, i64 4
  store i32 0, ptr %15, align 4
  %16 = getelementptr inbounds nuw i8, ptr %14, i64 8
  store i64 0, ptr %16, align 8
  %17 = load i32, ptr @max_logical_replication_workers, align 4
  %18 = icmp sgt i32 %17, 0
  br i1 %18, label %.lr.ph, label %.loopexit

.lr.ph:                                           ; preds = %9, %.lr.ph
  %indvars.iv = phi i64 [ %indvars.iv.next, %.lr.ph ], [ 0, %9 ]
  %19 = load ptr, ptr @LogicalRepCtx, align 8
  %20 = getelementptr inbounds nuw i8, ptr %19, i64 16
  %21 = getelementptr inbounds nuw [0 x %struct.LogicalRepWorker], ptr %20, i64 0, i64 %indvars.iv
  call void @llvm.memset.p0.i64(ptr noundef nonnull align 8 dereferenceable(128) %21, i8 0, i64 128, i1 false)
  call void asm sideeffect "", "~{memory},~{dirflag},~{fpsr},~{flags}"() #13, !srcloc !16
  %22 = getelementptr inbounds nuw i8, ptr %21, i64 64
  store i8 0, ptr %22, align 8
  %indvars.iv.next = add nuw nsw i64 %indvars.iv, 1
  %23 = load i32, ptr @max_logical_replication_workers, align 4
  %24 = sext i32 %23 to i64
  %25 = icmp slt i64 %indvars.iv.next, %24
  br i1 %25, label %.lr.ph, label %.loopexit, !llvm.loop !17

.loopexit:                                        ; preds = %.lr.ph, %9, %0
  call void @llvm.lifetime.end.p0(i64 1, ptr nonnull %1) #13
  ret void
}